ARM GAS  C:\Users\Chua\AppData\Local\Temp\ccGCFOKb.s 			page 1


   1              		.cpu cortex-m0
   2              		.arch armv6s-m
   3              		.fpu softvfp
   4              		.eabi_attribute 20, 1
   5              		.eabi_attribute 21, 1
   6              		.eabi_attribute 23, 3
   7              		.eabi_attribute 24, 1
   8              		.eabi_attribute 25, 1
   9              		.eabi_attribute 26, 1
  10              		.eabi_attribute 30, 1
  11              		.eabi_attribute 34, 0
  12              		.eabi_attribute 18, 4
  13              		.file	"main.c"
  14              		.text
  15              	.Ltext0:
  16              		.cfi_sections	.debug_frame
  17              		.file 1 "Core/Src/main.c"
  18              		.section	.text.Error_Handler,"ax",%progbits
  19              		.align	1
  20              		.global	Error_Handler
  21              		.syntax unified
  22              		.code	16
  23              		.thumb_func
  25              	Error_Handler:
  26              	.LFB42:
   1:Core/Src/main.c **** /* USER CODE BEGIN Header */
   2:Core/Src/main.c **** /**
   3:Core/Src/main.c ****   ******************************************************************************
   4:Core/Src/main.c ****   * @file           : main.c
   5:Core/Src/main.c ****   * @brief          : Main program body
   6:Core/Src/main.c ****   ******************************************************************************
   7:Core/Src/main.c ****   * @attention
   8:Core/Src/main.c ****   *
   9:Core/Src/main.c ****   * Copyright (c) 2023 STMicroelectronics.
  10:Core/Src/main.c ****   * All rights reserved.
  11:Core/Src/main.c ****   *
  12:Core/Src/main.c ****   * This software is licensed under terms that can be found in the LICENSE file
  13:Core/Src/main.c ****   * in the root directory of this software component.
  14:Core/Src/main.c ****   * If no LICENSE file comes with this software, it is provided AS-IS.
  15:Core/Src/main.c ****   *
  16:Core/Src/main.c ****   ******************************************************************************
  17:Core/Src/main.c ****   */
  18:Core/Src/main.c **** /* USER CODE END Header */
  19:Core/Src/main.c **** /* Includes ------------------------------------------------------------------*/
  20:Core/Src/main.c **** #include "main.h"
  21:Core/Src/main.c **** 
  22:Core/Src/main.c **** /* Private includes ----------------------------------------------------------*/
  23:Core/Src/main.c **** /* USER CODE BEGIN Includes */
  24:Core/Src/main.c **** 
  25:Core/Src/main.c **** /* USER CODE END Includes */
  26:Core/Src/main.c **** 
  27:Core/Src/main.c **** /* Private typedef -----------------------------------------------------------*/
  28:Core/Src/main.c **** /* USER CODE BEGIN PTD */
  29:Core/Src/main.c **** 
  30:Core/Src/main.c **** /* USER CODE END PTD */
  31:Core/Src/main.c **** 
  32:Core/Src/main.c **** /* Private define ------------------------------------------------------------*/
ARM GAS  C:\Users\Chua\AppData\Local\Temp\ccGCFOKb.s 			page 2


  33:Core/Src/main.c **** /* USER CODE BEGIN PD */
  34:Core/Src/main.c **** 
  35:Core/Src/main.c **** /* USER CODE END PD */
  36:Core/Src/main.c **** 
  37:Core/Src/main.c **** /* Private macro -------------------------------------------------------------*/
  38:Core/Src/main.c **** /* USER CODE BEGIN PM */
  39:Core/Src/main.c **** 
  40:Core/Src/main.c **** /* USER CODE END PM */
  41:Core/Src/main.c **** 
  42:Core/Src/main.c **** /* Private variables ---------------------------------------------------------*/
  43:Core/Src/main.c **** 
  44:Core/Src/main.c **** /* USER CODE BEGIN PV */
  45:Core/Src/main.c **** 
  46:Core/Src/main.c **** /* USER CODE END PV */
  47:Core/Src/main.c **** 
  48:Core/Src/main.c **** /* Private function prototypes -----------------------------------------------*/
  49:Core/Src/main.c **** void SystemClock_Config(void);
  50:Core/Src/main.c **** /* USER CODE BEGIN PFP */
  51:Core/Src/main.c **** 
  52:Core/Src/main.c **** /* USER CODE END PFP */
  53:Core/Src/main.c **** 
  54:Core/Src/main.c **** /* Private user code ---------------------------------------------------------*/
  55:Core/Src/main.c **** /* USER CODE BEGIN 0 */
  56:Core/Src/main.c **** 
  57:Core/Src/main.c **** /* USER CODE END 0 */
  58:Core/Src/main.c **** 
  59:Core/Src/main.c **** /**
  60:Core/Src/main.c ****   * @brief  The application entry point.
  61:Core/Src/main.c ****   * @retval int
  62:Core/Src/main.c ****   */
  63:Core/Src/main.c **** int main(void)
  64:Core/Src/main.c **** {
  65:Core/Src/main.c ****   /* USER CODE BEGIN 1 */
  66:Core/Src/main.c **** 
  67:Core/Src/main.c ****   /* USER CODE END 1 */
  68:Core/Src/main.c **** 
  69:Core/Src/main.c ****   /* MCU Configuration--------------------------------------------------------*/
  70:Core/Src/main.c **** 
  71:Core/Src/main.c ****   /* Reset of all peripherals, Initializes the Flash interface and the Systick. */
  72:Core/Src/main.c ****   HAL_Init();
  73:Core/Src/main.c **** 
  74:Core/Src/main.c ****   /* USER CODE BEGIN Init */
  75:Core/Src/main.c **** 
  76:Core/Src/main.c ****   /* USER CODE END Init */
  77:Core/Src/main.c **** 
  78:Core/Src/main.c ****   /* Configure the system clock */
  79:Core/Src/main.c ****   SystemClock_Config();
  80:Core/Src/main.c **** 
  81:Core/Src/main.c ****   /* USER CODE BEGIN SysInit */
  82:Core/Src/main.c ****   int t;
  83:Core/Src/main.c ****   RCC->CR |= 0x1;
  84:Core/Src/main.c ****   RCC->AHBENR |= RCC_AHBENR_GPIOAEN;
  85:Core/Src/main.c ****   GPIOA->MODER |= GPIO_MODER_MODER4_0;
  86:Core/Src/main.c ****   GPIOA->OTYPER &= ~GPIO_OTYPER_OT_4;
  87:Core/Src/main.c ****   GPIOA->OSPEEDR &= ~GPIO_OSPEEDER_OSPEEDR4_0;
  88:Core/Src/main.c ****   GPIOA->PUPDR |= GPIO_PUPDR_PUPDR4_0;
  89:Core/Src/main.c **** 
ARM GAS  C:\Users\Chua\AppData\Local\Temp\ccGCFOKb.s 			page 3


  90:Core/Src/main.c ****   /* USER CODE END SysInit */
  91:Core/Src/main.c **** 
  92:Core/Src/main.c ****   /* Initialize all configured peripherals */
  93:Core/Src/main.c ****   /* USER CODE BEGIN 2 */
  94:Core/Src/main.c **** 
  95:Core/Src/main.c ****   /* USER CODE END 2 */
  96:Core/Src/main.c **** 
  97:Core/Src/main.c ****   /* Infinite loop */
  98:Core/Src/main.c ****   /* USER CODE BEGIN WHILE */
  99:Core/Src/main.c ****   while (1)
 100:Core/Src/main.c ****   {
 101:Core/Src/main.c ****     GPIOA->ODR |= GPIO_ODR_4;
 102:Core/Src/main.c ****     // t = 57500;
 103:Core/Src/main.c ****     // while(t > 0) t--;
 104:Core/Src/main.c ****     GPIOA->ODR &= ~GPIO_ODR_4;
 105:Core/Src/main.c ****     // t = 57500;
 106:Core/Src/main.c ****     // while(t > 0) t--;
 107:Core/Src/main.c **** 
 108:Core/Src/main.c ****     /* USER CODE END WHILE */
 109:Core/Src/main.c **** 
 110:Core/Src/main.c ****     /* USER CODE BEGIN 3 */
 111:Core/Src/main.c ****   }
 112:Core/Src/main.c ****   /* USER CODE END 3 */
 113:Core/Src/main.c **** }
 114:Core/Src/main.c **** 
 115:Core/Src/main.c **** /**
 116:Core/Src/main.c ****   * @brief System Clock Configuration
 117:Core/Src/main.c ****   * @retval None
 118:Core/Src/main.c ****   */
 119:Core/Src/main.c **** void SystemClock_Config(void)
 120:Core/Src/main.c **** {
 121:Core/Src/main.c ****   RCC_OscInitTypeDef RCC_OscInitStruct = {0};
 122:Core/Src/main.c ****   RCC_ClkInitTypeDef RCC_ClkInitStruct = {0};
 123:Core/Src/main.c **** 
 124:Core/Src/main.c ****   /** Initializes the RCC Oscillators according to the specified parameters
 125:Core/Src/main.c ****   * in the RCC_OscInitTypeDef structure.
 126:Core/Src/main.c ****   */
 127:Core/Src/main.c ****   RCC_OscInitStruct.OscillatorType = RCC_OSCILLATORTYPE_HSI;
 128:Core/Src/main.c ****   RCC_OscInitStruct.HSIState = RCC_HSI_ON;
 129:Core/Src/main.c ****   RCC_OscInitStruct.HSICalibrationValue = RCC_HSICALIBRATION_DEFAULT;
 130:Core/Src/main.c ****   RCC_OscInitStruct.PLL.PLLState = RCC_PLL_NONE;
 131:Core/Src/main.c ****   if (HAL_RCC_OscConfig(&RCC_OscInitStruct) != HAL_OK)
 132:Core/Src/main.c ****   {
 133:Core/Src/main.c ****     Error_Handler();
 134:Core/Src/main.c ****   }
 135:Core/Src/main.c **** 
 136:Core/Src/main.c ****   /** Initializes the CPU, AHB and APB buses clocks
 137:Core/Src/main.c ****   */
 138:Core/Src/main.c ****   RCC_ClkInitStruct.ClockType = RCC_CLOCKTYPE_HCLK|RCC_CLOCKTYPE_SYSCLK
 139:Core/Src/main.c ****                               |RCC_CLOCKTYPE_PCLK1;
 140:Core/Src/main.c ****   RCC_ClkInitStruct.SYSCLKSource = RCC_SYSCLKSOURCE_HSI;
 141:Core/Src/main.c ****   RCC_ClkInitStruct.AHBCLKDivider = RCC_SYSCLK_DIV1;
 142:Core/Src/main.c ****   RCC_ClkInitStruct.APB1CLKDivider = RCC_HCLK_DIV1;
 143:Core/Src/main.c **** 
 144:Core/Src/main.c ****   if (HAL_RCC_ClockConfig(&RCC_ClkInitStruct, FLASH_LATENCY_0) != HAL_OK)
 145:Core/Src/main.c ****   {
 146:Core/Src/main.c ****     Error_Handler();
ARM GAS  C:\Users\Chua\AppData\Local\Temp\ccGCFOKb.s 			page 4


 147:Core/Src/main.c ****   }
 148:Core/Src/main.c **** }
 149:Core/Src/main.c **** 
 150:Core/Src/main.c **** /* USER CODE BEGIN 4 */
 151:Core/Src/main.c **** 
 152:Core/Src/main.c **** /* USER CODE END 4 */
 153:Core/Src/main.c **** 
 154:Core/Src/main.c **** /**
 155:Core/Src/main.c ****   * @brief  This function is executed in case of error occurrence.
 156:Core/Src/main.c ****   * @retval None
 157:Core/Src/main.c ****   */
 158:Core/Src/main.c **** void Error_Handler(void)
 159:Core/Src/main.c **** {
  27              		.loc 1 159 1 view -0
  28              		.cfi_startproc
  29              		@ Volatile: function does not return.
  30              		@ args = 0, pretend = 0, frame = 0
  31              		@ frame_needed = 0, uses_anonymous_args = 0
  32              		@ link register save eliminated.
 160:Core/Src/main.c ****   /* USER CODE BEGIN Error_Handler_Debug */
 161:Core/Src/main.c ****   /* User can add his own implementation to report the HAL error return state */
 162:Core/Src/main.c ****   __disable_irq();
  33              		.loc 1 162 3 view .LVU1
  34              	.LBB4:
  35              	.LBI4:
  36              		.file 2 "Drivers/CMSIS/Include/cmsis_gcc.h"
   1:Drivers/CMSIS/Include/cmsis_gcc.h **** /**************************************************************************//**
   2:Drivers/CMSIS/Include/cmsis_gcc.h ****  * @file     cmsis_gcc.h
   3:Drivers/CMSIS/Include/cmsis_gcc.h ****  * @brief    CMSIS compiler GCC header file
   4:Drivers/CMSIS/Include/cmsis_gcc.h ****  * @version  V5.0.4
   5:Drivers/CMSIS/Include/cmsis_gcc.h ****  * @date     09. April 2018
   6:Drivers/CMSIS/Include/cmsis_gcc.h ****  ******************************************************************************/
   7:Drivers/CMSIS/Include/cmsis_gcc.h **** /*
   8:Drivers/CMSIS/Include/cmsis_gcc.h ****  * Copyright (c) 2009-2018 Arm Limited. All rights reserved.
   9:Drivers/CMSIS/Include/cmsis_gcc.h ****  *
  10:Drivers/CMSIS/Include/cmsis_gcc.h ****  * SPDX-License-Identifier: Apache-2.0
  11:Drivers/CMSIS/Include/cmsis_gcc.h ****  *
  12:Drivers/CMSIS/Include/cmsis_gcc.h ****  * Licensed under the Apache License, Version 2.0 (the License); you may
  13:Drivers/CMSIS/Include/cmsis_gcc.h ****  * not use this file except in compliance with the License.
  14:Drivers/CMSIS/Include/cmsis_gcc.h ****  * You may obtain a copy of the License at
  15:Drivers/CMSIS/Include/cmsis_gcc.h ****  *
  16:Drivers/CMSIS/Include/cmsis_gcc.h ****  * www.apache.org/licenses/LICENSE-2.0
  17:Drivers/CMSIS/Include/cmsis_gcc.h ****  *
  18:Drivers/CMSIS/Include/cmsis_gcc.h ****  * Unless required by applicable law or agreed to in writing, software
  19:Drivers/CMSIS/Include/cmsis_gcc.h ****  * distributed under the License is distributed on an AS IS BASIS, WITHOUT
  20:Drivers/CMSIS/Include/cmsis_gcc.h ****  * WARRANTIES OR CONDITIONS OF ANY KIND, either express or implied.
  21:Drivers/CMSIS/Include/cmsis_gcc.h ****  * See the License for the specific language governing permissions and
  22:Drivers/CMSIS/Include/cmsis_gcc.h ****  * limitations under the License.
  23:Drivers/CMSIS/Include/cmsis_gcc.h ****  */
  24:Drivers/CMSIS/Include/cmsis_gcc.h **** 
  25:Drivers/CMSIS/Include/cmsis_gcc.h **** #ifndef __CMSIS_GCC_H
  26:Drivers/CMSIS/Include/cmsis_gcc.h **** #define __CMSIS_GCC_H
  27:Drivers/CMSIS/Include/cmsis_gcc.h **** 
  28:Drivers/CMSIS/Include/cmsis_gcc.h **** /* ignore some GCC warnings */
  29:Drivers/CMSIS/Include/cmsis_gcc.h **** #pragma GCC diagnostic push
  30:Drivers/CMSIS/Include/cmsis_gcc.h **** #pragma GCC diagnostic ignored "-Wsign-conversion"
  31:Drivers/CMSIS/Include/cmsis_gcc.h **** #pragma GCC diagnostic ignored "-Wconversion"
ARM GAS  C:\Users\Chua\AppData\Local\Temp\ccGCFOKb.s 			page 5


  32:Drivers/CMSIS/Include/cmsis_gcc.h **** #pragma GCC diagnostic ignored "-Wunused-parameter"
  33:Drivers/CMSIS/Include/cmsis_gcc.h **** 
  34:Drivers/CMSIS/Include/cmsis_gcc.h **** /* Fallback for __has_builtin */
  35:Drivers/CMSIS/Include/cmsis_gcc.h **** #ifndef __has_builtin
  36:Drivers/CMSIS/Include/cmsis_gcc.h ****   #define __has_builtin(x) (0)
  37:Drivers/CMSIS/Include/cmsis_gcc.h **** #endif
  38:Drivers/CMSIS/Include/cmsis_gcc.h **** 
  39:Drivers/CMSIS/Include/cmsis_gcc.h **** /* CMSIS compiler specific defines */
  40:Drivers/CMSIS/Include/cmsis_gcc.h **** #ifndef   __ASM
  41:Drivers/CMSIS/Include/cmsis_gcc.h ****   #define __ASM                                  __asm
  42:Drivers/CMSIS/Include/cmsis_gcc.h **** #endif
  43:Drivers/CMSIS/Include/cmsis_gcc.h **** #ifndef   __INLINE
  44:Drivers/CMSIS/Include/cmsis_gcc.h ****   #define __INLINE                               inline
  45:Drivers/CMSIS/Include/cmsis_gcc.h **** #endif
  46:Drivers/CMSIS/Include/cmsis_gcc.h **** #ifndef   __STATIC_INLINE
  47:Drivers/CMSIS/Include/cmsis_gcc.h ****   #define __STATIC_INLINE                        static inline
  48:Drivers/CMSIS/Include/cmsis_gcc.h **** #endif
  49:Drivers/CMSIS/Include/cmsis_gcc.h **** #ifndef   __STATIC_FORCEINLINE                 
  50:Drivers/CMSIS/Include/cmsis_gcc.h ****   #define __STATIC_FORCEINLINE                   __attribute__((always_inline)) static inline
  51:Drivers/CMSIS/Include/cmsis_gcc.h **** #endif                                           
  52:Drivers/CMSIS/Include/cmsis_gcc.h **** #ifndef   __NO_RETURN
  53:Drivers/CMSIS/Include/cmsis_gcc.h ****   #define __NO_RETURN                            __attribute__((__noreturn__))
  54:Drivers/CMSIS/Include/cmsis_gcc.h **** #endif
  55:Drivers/CMSIS/Include/cmsis_gcc.h **** #ifndef   __USED
  56:Drivers/CMSIS/Include/cmsis_gcc.h ****   #define __USED                                 __attribute__((used))
  57:Drivers/CMSIS/Include/cmsis_gcc.h **** #endif
  58:Drivers/CMSIS/Include/cmsis_gcc.h **** #ifndef   __WEAK
  59:Drivers/CMSIS/Include/cmsis_gcc.h ****   #define __WEAK                                 __attribute__((weak))
  60:Drivers/CMSIS/Include/cmsis_gcc.h **** #endif
  61:Drivers/CMSIS/Include/cmsis_gcc.h **** #ifndef   __PACKED
  62:Drivers/CMSIS/Include/cmsis_gcc.h ****   #define __PACKED                               __attribute__((packed, aligned(1)))
  63:Drivers/CMSIS/Include/cmsis_gcc.h **** #endif
  64:Drivers/CMSIS/Include/cmsis_gcc.h **** #ifndef   __PACKED_STRUCT
  65:Drivers/CMSIS/Include/cmsis_gcc.h ****   #define __PACKED_STRUCT                        struct __attribute__((packed, aligned(1)))
  66:Drivers/CMSIS/Include/cmsis_gcc.h **** #endif
  67:Drivers/CMSIS/Include/cmsis_gcc.h **** #ifndef   __PACKED_UNION
  68:Drivers/CMSIS/Include/cmsis_gcc.h ****   #define __PACKED_UNION                         union __attribute__((packed, aligned(1)))
  69:Drivers/CMSIS/Include/cmsis_gcc.h **** #endif
  70:Drivers/CMSIS/Include/cmsis_gcc.h **** #ifndef   __UNALIGNED_UINT32        /* deprecated */
  71:Drivers/CMSIS/Include/cmsis_gcc.h ****   #pragma GCC diagnostic push
  72:Drivers/CMSIS/Include/cmsis_gcc.h ****   #pragma GCC diagnostic ignored "-Wpacked"
  73:Drivers/CMSIS/Include/cmsis_gcc.h ****   #pragma GCC diagnostic ignored "-Wattributes"
  74:Drivers/CMSIS/Include/cmsis_gcc.h ****   struct __attribute__((packed)) T_UINT32 { uint32_t v; };
  75:Drivers/CMSIS/Include/cmsis_gcc.h ****   #pragma GCC diagnostic pop
  76:Drivers/CMSIS/Include/cmsis_gcc.h ****   #define __UNALIGNED_UINT32(x)                  (((struct T_UINT32 *)(x))->v)
  77:Drivers/CMSIS/Include/cmsis_gcc.h **** #endif
  78:Drivers/CMSIS/Include/cmsis_gcc.h **** #ifndef   __UNALIGNED_UINT16_WRITE
  79:Drivers/CMSIS/Include/cmsis_gcc.h ****   #pragma GCC diagnostic push
  80:Drivers/CMSIS/Include/cmsis_gcc.h ****   #pragma GCC diagnostic ignored "-Wpacked"
  81:Drivers/CMSIS/Include/cmsis_gcc.h ****   #pragma GCC diagnostic ignored "-Wattributes"
  82:Drivers/CMSIS/Include/cmsis_gcc.h ****   __PACKED_STRUCT T_UINT16_WRITE { uint16_t v; };
  83:Drivers/CMSIS/Include/cmsis_gcc.h ****   #pragma GCC diagnostic pop
  84:Drivers/CMSIS/Include/cmsis_gcc.h ****   #define __UNALIGNED_UINT16_WRITE(addr, val)    (void)((((struct T_UINT16_WRITE *)(void *)(addr))-
  85:Drivers/CMSIS/Include/cmsis_gcc.h **** #endif
  86:Drivers/CMSIS/Include/cmsis_gcc.h **** #ifndef   __UNALIGNED_UINT16_READ
  87:Drivers/CMSIS/Include/cmsis_gcc.h ****   #pragma GCC diagnostic push
  88:Drivers/CMSIS/Include/cmsis_gcc.h ****   #pragma GCC diagnostic ignored "-Wpacked"
ARM GAS  C:\Users\Chua\AppData\Local\Temp\ccGCFOKb.s 			page 6


  89:Drivers/CMSIS/Include/cmsis_gcc.h ****   #pragma GCC diagnostic ignored "-Wattributes"
  90:Drivers/CMSIS/Include/cmsis_gcc.h ****   __PACKED_STRUCT T_UINT16_READ { uint16_t v; };
  91:Drivers/CMSIS/Include/cmsis_gcc.h ****   #pragma GCC diagnostic pop
  92:Drivers/CMSIS/Include/cmsis_gcc.h ****   #define __UNALIGNED_UINT16_READ(addr)          (((const struct T_UINT16_READ *)(const void *)(add
  93:Drivers/CMSIS/Include/cmsis_gcc.h **** #endif
  94:Drivers/CMSIS/Include/cmsis_gcc.h **** #ifndef   __UNALIGNED_UINT32_WRITE
  95:Drivers/CMSIS/Include/cmsis_gcc.h ****   #pragma GCC diagnostic push
  96:Drivers/CMSIS/Include/cmsis_gcc.h ****   #pragma GCC diagnostic ignored "-Wpacked"
  97:Drivers/CMSIS/Include/cmsis_gcc.h ****   #pragma GCC diagnostic ignored "-Wattributes"
  98:Drivers/CMSIS/Include/cmsis_gcc.h ****   __PACKED_STRUCT T_UINT32_WRITE { uint32_t v; };
  99:Drivers/CMSIS/Include/cmsis_gcc.h ****   #pragma GCC diagnostic pop
 100:Drivers/CMSIS/Include/cmsis_gcc.h ****   #define __UNALIGNED_UINT32_WRITE(addr, val)    (void)((((struct T_UINT32_WRITE *)(void *)(addr))-
 101:Drivers/CMSIS/Include/cmsis_gcc.h **** #endif
 102:Drivers/CMSIS/Include/cmsis_gcc.h **** #ifndef   __UNALIGNED_UINT32_READ
 103:Drivers/CMSIS/Include/cmsis_gcc.h ****   #pragma GCC diagnostic push
 104:Drivers/CMSIS/Include/cmsis_gcc.h ****   #pragma GCC diagnostic ignored "-Wpacked"
 105:Drivers/CMSIS/Include/cmsis_gcc.h ****   #pragma GCC diagnostic ignored "-Wattributes"
 106:Drivers/CMSIS/Include/cmsis_gcc.h ****   __PACKED_STRUCT T_UINT32_READ { uint32_t v; };
 107:Drivers/CMSIS/Include/cmsis_gcc.h ****   #pragma GCC diagnostic pop
 108:Drivers/CMSIS/Include/cmsis_gcc.h ****   #define __UNALIGNED_UINT32_READ(addr)          (((const struct T_UINT32_READ *)(const void *)(add
 109:Drivers/CMSIS/Include/cmsis_gcc.h **** #endif
 110:Drivers/CMSIS/Include/cmsis_gcc.h **** #ifndef   __ALIGNED
 111:Drivers/CMSIS/Include/cmsis_gcc.h ****   #define __ALIGNED(x)                           __attribute__((aligned(x)))
 112:Drivers/CMSIS/Include/cmsis_gcc.h **** #endif
 113:Drivers/CMSIS/Include/cmsis_gcc.h **** #ifndef   __RESTRICT
 114:Drivers/CMSIS/Include/cmsis_gcc.h ****   #define __RESTRICT                             __restrict
 115:Drivers/CMSIS/Include/cmsis_gcc.h **** #endif
 116:Drivers/CMSIS/Include/cmsis_gcc.h **** 
 117:Drivers/CMSIS/Include/cmsis_gcc.h **** 
 118:Drivers/CMSIS/Include/cmsis_gcc.h **** /* ###########################  Core Function Access  ########################### */
 119:Drivers/CMSIS/Include/cmsis_gcc.h **** /** \ingroup  CMSIS_Core_FunctionInterface
 120:Drivers/CMSIS/Include/cmsis_gcc.h ****     \defgroup CMSIS_Core_RegAccFunctions CMSIS Core Register Access Functions
 121:Drivers/CMSIS/Include/cmsis_gcc.h ****   @{
 122:Drivers/CMSIS/Include/cmsis_gcc.h ****  */
 123:Drivers/CMSIS/Include/cmsis_gcc.h **** 
 124:Drivers/CMSIS/Include/cmsis_gcc.h **** /**
 125:Drivers/CMSIS/Include/cmsis_gcc.h ****   \brief   Enable IRQ Interrupts
 126:Drivers/CMSIS/Include/cmsis_gcc.h ****   \details Enables IRQ interrupts by clearing the I-bit in the CPSR.
 127:Drivers/CMSIS/Include/cmsis_gcc.h ****            Can only be executed in Privileged modes.
 128:Drivers/CMSIS/Include/cmsis_gcc.h ****  */
 129:Drivers/CMSIS/Include/cmsis_gcc.h **** __STATIC_FORCEINLINE void __enable_irq(void)
 130:Drivers/CMSIS/Include/cmsis_gcc.h **** {
 131:Drivers/CMSIS/Include/cmsis_gcc.h ****   __ASM volatile ("cpsie i" : : : "memory");
 132:Drivers/CMSIS/Include/cmsis_gcc.h **** }
 133:Drivers/CMSIS/Include/cmsis_gcc.h **** 
 134:Drivers/CMSIS/Include/cmsis_gcc.h **** 
 135:Drivers/CMSIS/Include/cmsis_gcc.h **** /**
 136:Drivers/CMSIS/Include/cmsis_gcc.h ****   \brief   Disable IRQ Interrupts
 137:Drivers/CMSIS/Include/cmsis_gcc.h ****   \details Disables IRQ interrupts by setting the I-bit in the CPSR.
 138:Drivers/CMSIS/Include/cmsis_gcc.h ****            Can only be executed in Privileged modes.
 139:Drivers/CMSIS/Include/cmsis_gcc.h ****  */
 140:Drivers/CMSIS/Include/cmsis_gcc.h **** __STATIC_FORCEINLINE void __disable_irq(void)
  37              		.loc 2 140 27 view .LVU2
  38              	.LBB5:
 141:Drivers/CMSIS/Include/cmsis_gcc.h **** {
 142:Drivers/CMSIS/Include/cmsis_gcc.h ****   __ASM volatile ("cpsid i" : : : "memory");
  39              		.loc 2 142 3 view .LVU3
ARM GAS  C:\Users\Chua\AppData\Local\Temp\ccGCFOKb.s 			page 7


  40              		.syntax divided
  41              	@ 142 "Drivers/CMSIS/Include/cmsis_gcc.h" 1
  42 0000 72B6     		cpsid i
  43              	@ 0 "" 2
  44              		.thumb
  45              		.syntax unified
  46              	.L2:
  47              	.LBE5:
  48              	.LBE4:
 163:Core/Src/main.c ****   while (1)
  49              		.loc 1 163 3 discriminator 1 view .LVU4
 164:Core/Src/main.c ****   {
 165:Core/Src/main.c ****   }
  50              		.loc 1 165 3 discriminator 1 view .LVU5
 163:Core/Src/main.c ****   while (1)
  51              		.loc 1 163 9 discriminator 1 view .LVU6
  52 0002 FEE7     		b	.L2
  53              		.cfi_endproc
  54              	.LFE42:
  56              		.section	.text.SystemClock_Config,"ax",%progbits
  57              		.align	1
  58              		.global	SystemClock_Config
  59              		.syntax unified
  60              		.code	16
  61              		.thumb_func
  63              	SystemClock_Config:
  64              	.LFB41:
 120:Core/Src/main.c ****   RCC_OscInitTypeDef RCC_OscInitStruct = {0};
  65              		.loc 1 120 1 view -0
  66              		.cfi_startproc
  67              		@ args = 0, pretend = 0, frame = 64
  68              		@ frame_needed = 0, uses_anonymous_args = 0
  69 0000 00B5     		push	{lr}
  70              	.LCFI0:
  71              		.cfi_def_cfa_offset 4
  72              		.cfi_offset 14, -4
  73 0002 91B0     		sub	sp, sp, #68
  74              	.LCFI1:
  75              		.cfi_def_cfa_offset 72
 121:Core/Src/main.c ****   RCC_ClkInitTypeDef RCC_ClkInitStruct = {0};
  76              		.loc 1 121 3 view .LVU8
 121:Core/Src/main.c ****   RCC_ClkInitTypeDef RCC_ClkInitStruct = {0};
  77              		.loc 1 121 22 is_stmt 0 view .LVU9
  78 0004 3022     		movs	r2, #48
  79 0006 0021     		movs	r1, #0
  80 0008 04A8     		add	r0, sp, #16
  81 000a FFF7FEFF 		bl	memset
  82              	.LVL0:
 122:Core/Src/main.c **** 
  83              		.loc 1 122 3 is_stmt 1 view .LVU10
 122:Core/Src/main.c **** 
  84              		.loc 1 122 22 is_stmt 0 view .LVU11
  85 000e 1022     		movs	r2, #16
  86 0010 0021     		movs	r1, #0
  87 0012 6846     		mov	r0, sp
  88 0014 FFF7FEFF 		bl	memset
  89              	.LVL1:
ARM GAS  C:\Users\Chua\AppData\Local\Temp\ccGCFOKb.s 			page 8


 127:Core/Src/main.c ****   RCC_OscInitStruct.HSIState = RCC_HSI_ON;
  90              		.loc 1 127 3 is_stmt 1 view .LVU12
 127:Core/Src/main.c ****   RCC_OscInitStruct.HSIState = RCC_HSI_ON;
  91              		.loc 1 127 36 is_stmt 0 view .LVU13
  92 0018 0223     		movs	r3, #2
  93 001a 0493     		str	r3, [sp, #16]
 128:Core/Src/main.c ****   RCC_OscInitStruct.HSICalibrationValue = RCC_HSICALIBRATION_DEFAULT;
  94              		.loc 1 128 3 is_stmt 1 view .LVU14
 128:Core/Src/main.c ****   RCC_OscInitStruct.HSICalibrationValue = RCC_HSICALIBRATION_DEFAULT;
  95              		.loc 1 128 30 is_stmt 0 view .LVU15
  96 001c 013B     		subs	r3, r3, #1
  97 001e 0793     		str	r3, [sp, #28]
 129:Core/Src/main.c ****   RCC_OscInitStruct.PLL.PLLState = RCC_PLL_NONE;
  98              		.loc 1 129 3 is_stmt 1 view .LVU16
 129:Core/Src/main.c ****   RCC_OscInitStruct.PLL.PLLState = RCC_PLL_NONE;
  99              		.loc 1 129 41 is_stmt 0 view .LVU17
 100 0020 0F33     		adds	r3, r3, #15
 101 0022 0893     		str	r3, [sp, #32]
 130:Core/Src/main.c ****   if (HAL_RCC_OscConfig(&RCC_OscInitStruct) != HAL_OK)
 102              		.loc 1 130 3 is_stmt 1 view .LVU18
 131:Core/Src/main.c ****   {
 103              		.loc 1 131 3 view .LVU19
 131:Core/Src/main.c ****   {
 104              		.loc 1 131 7 is_stmt 0 view .LVU20
 105 0024 04A8     		add	r0, sp, #16
 106 0026 FFF7FEFF 		bl	HAL_RCC_OscConfig
 107              	.LVL2:
 131:Core/Src/main.c ****   {
 108              		.loc 1 131 6 view .LVU21
 109 002a 0028     		cmp	r0, #0
 110 002c 0DD1     		bne	.L6
 138:Core/Src/main.c ****                               |RCC_CLOCKTYPE_PCLK1;
 111              		.loc 1 138 3 is_stmt 1 view .LVU22
 138:Core/Src/main.c ****                               |RCC_CLOCKTYPE_PCLK1;
 112              		.loc 1 138 31 is_stmt 0 view .LVU23
 113 002e 0723     		movs	r3, #7
 114 0030 0093     		str	r3, [sp]
 140:Core/Src/main.c ****   RCC_ClkInitStruct.AHBCLKDivider = RCC_SYSCLK_DIV1;
 115              		.loc 1 140 3 is_stmt 1 view .LVU24
 140:Core/Src/main.c ****   RCC_ClkInitStruct.AHBCLKDivider = RCC_SYSCLK_DIV1;
 116              		.loc 1 140 34 is_stmt 0 view .LVU25
 117 0032 0023     		movs	r3, #0
 118 0034 0193     		str	r3, [sp, #4]
 141:Core/Src/main.c ****   RCC_ClkInitStruct.APB1CLKDivider = RCC_HCLK_DIV1;
 119              		.loc 1 141 3 is_stmt 1 view .LVU26
 141:Core/Src/main.c ****   RCC_ClkInitStruct.APB1CLKDivider = RCC_HCLK_DIV1;
 120              		.loc 1 141 35 is_stmt 0 view .LVU27
 121 0036 0293     		str	r3, [sp, #8]
 142:Core/Src/main.c **** 
 122              		.loc 1 142 3 is_stmt 1 view .LVU28
 142:Core/Src/main.c **** 
 123              		.loc 1 142 36 is_stmt 0 view .LVU29
 124 0038 0393     		str	r3, [sp, #12]
 144:Core/Src/main.c ****   {
 125              		.loc 1 144 3 is_stmt 1 view .LVU30
 144:Core/Src/main.c ****   {
 126              		.loc 1 144 7 is_stmt 0 view .LVU31
ARM GAS  C:\Users\Chua\AppData\Local\Temp\ccGCFOKb.s 			page 9


 127 003a 0021     		movs	r1, #0
 128 003c 6846     		mov	r0, sp
 129 003e FFF7FEFF 		bl	HAL_RCC_ClockConfig
 130              	.LVL3:
 144:Core/Src/main.c ****   {
 131              		.loc 1 144 6 view .LVU32
 132 0042 0028     		cmp	r0, #0
 133 0044 03D1     		bne	.L7
 148:Core/Src/main.c **** 
 134              		.loc 1 148 1 view .LVU33
 135 0046 11B0     		add	sp, sp, #68
 136              		@ sp needed
 137 0048 00BD     		pop	{pc}
 138              	.L6:
 133:Core/Src/main.c ****   }
 139              		.loc 1 133 5 is_stmt 1 view .LVU34
 140 004a FFF7FEFF 		bl	Error_Handler
 141              	.LVL4:
 142              	.L7:
 146:Core/Src/main.c ****   }
 143              		.loc 1 146 5 view .LVU35
 144 004e FFF7FEFF 		bl	Error_Handler
 145              	.LVL5:
 146              		.cfi_endproc
 147              	.LFE41:
 149              		.section	.text.main,"ax",%progbits
 150              		.align	1
 151              		.global	main
 152              		.syntax unified
 153              		.code	16
 154              		.thumb_func
 156              	main:
 157              	.LFB40:
  64:Core/Src/main.c ****   /* USER CODE BEGIN 1 */
 158              		.loc 1 64 1 view -0
 159              		.cfi_startproc
 160              		@ Volatile: function does not return.
 161              		@ args = 0, pretend = 0, frame = 0
 162              		@ frame_needed = 0, uses_anonymous_args = 0
 163 0000 10B5     		push	{r4, lr}
 164              	.LCFI2:
 165              		.cfi_def_cfa_offset 8
 166              		.cfi_offset 4, -8
 167              		.cfi_offset 14, -4
  72:Core/Src/main.c **** 
 168              		.loc 1 72 3 view .LVU37
 169 0002 FFF7FEFF 		bl	HAL_Init
 170              	.LVL6:
  79:Core/Src/main.c **** 
 171              		.loc 1 79 3 view .LVU38
 172 0006 FFF7FEFF 		bl	SystemClock_Config
 173              	.LVL7:
  82:Core/Src/main.c ****   RCC->CR |= 0x1;
 174              		.loc 1 82 3 view .LVU39
  83:Core/Src/main.c ****   RCC->AHBENR |= RCC_AHBENR_GPIOAEN;
 175              		.loc 1 83 3 view .LVU40
  83:Core/Src/main.c ****   RCC->AHBENR |= RCC_AHBENR_GPIOAEN;
ARM GAS  C:\Users\Chua\AppData\Local\Temp\ccGCFOKb.s 			page 10


 176              		.loc 1 83 6 is_stmt 0 view .LVU41
 177 000a 134B     		ldr	r3, .L10
 178 000c 1A68     		ldr	r2, [r3]
  83:Core/Src/main.c ****   RCC->AHBENR |= RCC_AHBENR_GPIOAEN;
 179              		.loc 1 83 11 view .LVU42
 180 000e 0121     		movs	r1, #1
 181 0010 0A43     		orrs	r2, r1
 182 0012 1A60     		str	r2, [r3]
  84:Core/Src/main.c ****   GPIOA->MODER |= GPIO_MODER_MODER4_0;
 183              		.loc 1 84 3 is_stmt 1 view .LVU43
  84:Core/Src/main.c ****   GPIOA->MODER |= GPIO_MODER_MODER4_0;
 184              		.loc 1 84 6 is_stmt 0 view .LVU44
 185 0014 5969     		ldr	r1, [r3, #20]
  84:Core/Src/main.c ****   GPIOA->MODER |= GPIO_MODER_MODER4_0;
 186              		.loc 1 84 15 view .LVU45
 187 0016 8022     		movs	r2, #128
 188 0018 9202     		lsls	r2, r2, #10
 189 001a 0A43     		orrs	r2, r1
 190 001c 5A61     		str	r2, [r3, #20]
  85:Core/Src/main.c ****   GPIOA->OTYPER &= ~GPIO_OTYPER_OT_4;
 191              		.loc 1 85 3 is_stmt 1 view .LVU46
  85:Core/Src/main.c ****   GPIOA->OTYPER &= ~GPIO_OTYPER_OT_4;
 192              		.loc 1 85 8 is_stmt 0 view .LVU47
 193 001e 9023     		movs	r3, #144
 194 0020 DB05     		lsls	r3, r3, #23
 195 0022 1968     		ldr	r1, [r3]
  85:Core/Src/main.c ****   GPIOA->OTYPER &= ~GPIO_OTYPER_OT_4;
 196              		.loc 1 85 16 view .LVU48
 197 0024 8022     		movs	r2, #128
 198 0026 5200     		lsls	r2, r2, #1
 199 0028 1143     		orrs	r1, r2
 200 002a 1960     		str	r1, [r3]
  86:Core/Src/main.c ****   GPIOA->OSPEEDR &= ~GPIO_OSPEEDER_OSPEEDR4_0;
 201              		.loc 1 86 3 is_stmt 1 view .LVU49
  86:Core/Src/main.c ****   GPIOA->OSPEEDR &= ~GPIO_OSPEEDER_OSPEEDR4_0;
 202              		.loc 1 86 8 is_stmt 0 view .LVU50
 203 002c 5968     		ldr	r1, [r3, #4]
  86:Core/Src/main.c ****   GPIOA->OSPEEDR &= ~GPIO_OSPEEDER_OSPEEDR4_0;
 204              		.loc 1 86 17 view .LVU51
 205 002e 1020     		movs	r0, #16
 206 0030 8143     		bics	r1, r0
 207 0032 5960     		str	r1, [r3, #4]
  87:Core/Src/main.c ****   GPIOA->PUPDR |= GPIO_PUPDR_PUPDR4_0;
 208              		.loc 1 87 3 is_stmt 1 view .LVU52
  87:Core/Src/main.c ****   GPIOA->PUPDR |= GPIO_PUPDR_PUPDR4_0;
 209              		.loc 1 87 8 is_stmt 0 view .LVU53
 210 0034 9968     		ldr	r1, [r3, #8]
  87:Core/Src/main.c ****   GPIOA->PUPDR |= GPIO_PUPDR_PUPDR4_0;
 211              		.loc 1 87 18 view .LVU54
 212 0036 0948     		ldr	r0, .L10+4
 213 0038 0140     		ands	r1, r0
 214 003a 9960     		str	r1, [r3, #8]
  88:Core/Src/main.c **** 
 215              		.loc 1 88 3 is_stmt 1 view .LVU55
  88:Core/Src/main.c **** 
 216              		.loc 1 88 8 is_stmt 0 view .LVU56
 217 003c D968     		ldr	r1, [r3, #12]
ARM GAS  C:\Users\Chua\AppData\Local\Temp\ccGCFOKb.s 			page 11


  88:Core/Src/main.c **** 
 218              		.loc 1 88 16 view .LVU57
 219 003e 0A43     		orrs	r2, r1
 220 0040 DA60     		str	r2, [r3, #12]
 221              	.L9:
  99:Core/Src/main.c ****   {
 222              		.loc 1 99 3 is_stmt 1 discriminator 1 view .LVU58
 101:Core/Src/main.c ****     // t = 57500;
 223              		.loc 1 101 5 discriminator 1 view .LVU59
 101:Core/Src/main.c ****     // t = 57500;
 224              		.loc 1 101 10 is_stmt 0 discriminator 1 view .LVU60
 225 0042 9023     		movs	r3, #144
 226 0044 DB05     		lsls	r3, r3, #23
 227 0046 5A69     		ldr	r2, [r3, #20]
 101:Core/Src/main.c ****     // t = 57500;
 228              		.loc 1 101 16 discriminator 1 view .LVU61
 229 0048 1021     		movs	r1, #16
 230 004a 0A43     		orrs	r2, r1
 231 004c 5A61     		str	r2, [r3, #20]
 104:Core/Src/main.c ****     // t = 57500;
 232              		.loc 1 104 5 is_stmt 1 discriminator 1 view .LVU62
 104:Core/Src/main.c ****     // t = 57500;
 233              		.loc 1 104 10 is_stmt 0 discriminator 1 view .LVU63
 234 004e 5A69     		ldr	r2, [r3, #20]
 104:Core/Src/main.c ****     // t = 57500;
 235              		.loc 1 104 16 discriminator 1 view .LVU64
 236 0050 8A43     		bics	r2, r1
 237 0052 5A61     		str	r2, [r3, #20]
  99:Core/Src/main.c ****   {
 238              		.loc 1 99 9 is_stmt 1 discriminator 1 view .LVU65
 239 0054 F5E7     		b	.L9
 240              	.L11:
 241 0056 C046     		.align	2
 242              	.L10:
 243 0058 00100240 		.word	1073876992
 244 005c FFFEFFFF 		.word	-257
 245              		.cfi_endproc
 246              	.LFE40:
 248              		.text
 249              	.Letext0:
 250              		.file 3 "c:\\program files (x86)\\arm gnu toolchain arm-none-eabi\\12.3 rel1\\arm-none-eabi\\inclu
 251              		.file 4 "c:\\program files (x86)\\arm gnu toolchain arm-none-eabi\\12.3 rel1\\arm-none-eabi\\inclu
 252              		.file 5 "Drivers/CMSIS/Device/ST/STM32F0xx/Include/stm32f030x6.h"
 253              		.file 6 "Drivers/STM32F0xx_HAL_Driver/Inc/stm32f0xx_hal_def.h"
 254              		.file 7 "Drivers/STM32F0xx_HAL_Driver/Inc/stm32f0xx_hal_rcc.h"
 255              		.file 8 "Drivers/STM32F0xx_HAL_Driver/Inc/stm32f0xx_hal.h"
 256              		.file 9 "<built-in>"
ARM GAS  C:\Users\Chua\AppData\Local\Temp\ccGCFOKb.s 			page 12

